target datalayout = "e-m:e-p270:32:32-p271:32:32-p272:64:64-i64:64-i128:128-f80:128-n8:16:32:64-S128"
target triple = "x86_64-pc-linux-gnu"

@.str.2 = private unnamed_addr constant [12 x i8] c"write error\00", align 1

; Function Attrs: nounwind uwtable
define dso_local void @write_or_die(i32 noundef %0, ptr noundef %1, i64 noundef %2) #0 {
  %4 = alloca i32, align 4
  %5 = alloca ptr, align 8
  %6 = alloca i64, align 8
  store i32 %0, ptr %4, align 4, !tbaa !11
  store ptr %1, ptr %5, align 8, !tbaa !17
  store i64 %2, ptr %6, align 8, !tbaa !18
  %7 = load i32, ptr %4, align 4, !tbaa !11
  %8 = load ptr, ptr %5, align 8, !tbaa !17
  %9 = load i64, ptr %6, align 8, !tbaa !18
  %10 = call i64 @write_in_full(i32 noundef %7, ptr noundef %8, i64 noundef %9)
  %11 = icmp slt i64 %10, 0
  br i1 %11, label %12, label %15

12:                                               ; preds = %3
  %13 = call ptr @__errno_location() #8
  %14 = load i32, ptr %13, align 4, !tbaa !11
  call void @check_pipe(i32 noundef %14)
  call void (ptr, ...) @die_errno(ptr noundef @.str.2) #9
  unreachable

15:                                               ; preds = %3
  ret void
}