; Function Attrs: nounwind uwtable
define dso_local void @write_or_die(i32 noundef %0, ptr noundef %1, i64 noundef %2) local_unnamed_addr #0 {
  %4 = tail call i64 @write_in_full(i32 noundef %0, ptr noundef %1, i64 noundef %2) #8
  %5 = icmp slt i64 %4, 0
  br i1 %5, label %6, label %9

6:                                                ; preds = %3
  %7 = tail call ptr @__errno_location() #9
  %8 = load i32, ptr %7, align 4, !tbaa !9
  tail call void @check_pipe(i32 noundef %8) #8
  tail call void (ptr, ...) @die_errno(ptr noundef nonnull @.str.2) #10
  unreachable

9:                                                ; preds = %3
  ret void
}